target datalayout = "e-m:e-p270:32:32-p271:32:32-p272:64:64-i64:64-i128:128-f80:128-n8:16:32:64-S128"
target triple = "x86_64-pc-linux-gnu"

%struct._value_string_ext = type { ptr, i32, i32, ptr, ptr }
%struct._dcerpc_info = type { ptr, i32, i64, i8, i8, i8, i32, i32, i32, i32, i32, i32, i32, i32, ptr, ptr, ptr, ptr, %struct.anon }
%struct.anon = type { i8, ptr, ptr, ptr, i8 }
%struct._packet_info = type { ptr, ptr, i32, i32, %struct.nstime_t, %struct.nstime_t, %struct.nstime_t, i8, ptr, ptr, ptr, ptr, %struct._address, %struct._address, %struct._address, %struct._address, %struct._address, %struct._address, i32, ptr, i8, [3 x i8], %struct.anon.0, i32, i32, i32, i32, ptr, i8, ptr, ptr, i16, i16, i32, i32, i16, i32, i32, ptr, ptr, ptr, i8, i8, i16, i16, i16, i32, i16, i16, ptr, ptr, ptr, ptr, ptr, i32, i32 }
%struct.nstime_t = type { i64, i32 }
%struct._address = type { i32, i32, ptr, ptr }
%struct.anon.0 = type { i8, [3 x i8] }

@hf_error_st = internal global i32 0, align 4
@.str.346 = private unnamed_addr constant [3 x i8] c"%u\00", align 1
@dce_error_vals_ext = external global %struct._value_string_ext, align 8
@.str.373 = private unnamed_addr constant [10 x i8] c"%s st:%s \00", align 1
@.str.375 = private unnamed_addr constant [8 x i8] c" st:%s \00", align 1
@.str.376 = private unnamed_addr constant [9 x i8] c"afsFid: \00", align 1
@.str.385 = private unnamed_addr constant [14 x i8] c"FetchStatus: \00", align 1
@.str.386 = private unnamed_addr constant [11 x i8] c"afsToken: \00", align 1
@.str.387 = private unnamed_addr constant [10 x i8] c"VolSync: \00", align 1
@.str.460 = private unnamed_addr constant [14 x i8] c"MakeDir reply\00", align 1

; Function Attrs: null_pointer_is_valid sspstrong uwtable
define internal i32 @fileexp_dissect_makedir_resp(ptr noundef %0, i32 noundef %1, ptr noundef %2, ptr noundef %3, ptr noundef %4, ptr noundef %5) #0 {
  %7 = alloca i32, align 4
  %8 = alloca ptr, align 8
  %9 = alloca i32, align 4
  %10 = alloca ptr, align 8
  %11 = alloca ptr, align 8
  %12 = alloca ptr, align 8
  %13 = alloca ptr, align 8
  %14 = alloca i32, align 4
  %15 = alloca ptr, align 8
  store ptr %0, ptr %8, align 8
  store i32 %1, ptr %9, align 4
  store ptr %2, ptr %10, align 8
  store ptr %3, ptr %11, align 8
  store ptr %4, ptr %12, align 8
  store ptr %5, ptr %13, align 8
  %16 = load ptr, ptr %12, align 8
  %17 = getelementptr inbounds nuw %struct._dcerpc_info, ptr %16, i32 0, i32 4
  %18 = load i8, ptr %17, align 1, !range !6, !noundef !7
  %19 = trunc i8 %18 to i1
  br i1 %19, label %20, label %22

20:                                               ; preds = %6
  %21 = load i32, ptr %9, align 4
  store i32 %21, ptr %7, align 4
  br label %82

22:                                               ; preds = %6
  %23 = load ptr, ptr %8, align 8
  %24 = load i32, ptr %9, align 4
  %25 = load ptr, ptr %10, align 8
  %26 = load ptr, ptr %11, align 8
  %27 = load ptr, ptr %12, align 8
  %28 = load ptr, ptr %13, align 8
  %29 = call i32 @dissect_ndr_pointer(ptr noundef %23, i32 noundef %24, ptr noundef %25, ptr noundef %26, ptr noundef %27, ptr noundef %28, ptr noundef @dissect_afsFid, i32 noundef 1, ptr noundef @.str.376, i32 noundef -1)
  store i32 %29, ptr %9, align 4
  %30 = load ptr, ptr %8, align 8
  %31 = load i32, ptr %9, align 4
  %32 = load ptr, ptr %10, align 8
  %33 = load ptr, ptr %11, align 8
  %34 = load ptr, ptr %12, align 8
  %35 = load ptr, ptr %13, align 8
  %36 = call i32 @dissect_ndr_pointer(ptr noundef %30, i32 noundef %31, ptr noundef %32, ptr noundef %33, ptr noundef %34, ptr noundef %35, ptr noundef @dissect_fetchstatus, i32 noundef 1, ptr noundef @.str.385, i32 noundef -1)
  store i32 %36, ptr %9, align 4
  %37 = load ptr, ptr %8, align 8
  %38 = load i32, ptr %9, align 4
  %39 = load ptr, ptr %10, align 8
  %40 = load ptr, ptr %11, align 8
  %41 = load ptr, ptr %12, align 8
  %42 = load ptr, ptr %13, align 8
  %43 = call i32 @dissect_ndr_pointer(ptr noundef %37, i32 noundef %38, ptr noundef %39, ptr noundef %40, ptr noundef %41, ptr noundef %42, ptr noundef @dissect_fetchstatus, i32 noundef 1, ptr noundef @.str.385, i32 noundef -1)
  store i32 %43, ptr %9, align 4
  %44 = load ptr, ptr %8, align 8
  %45 = load i32, ptr %9, align 4
  %46 = load ptr, ptr %10, align 8
  %47 = load ptr, ptr %11, align 8
  %48 = load ptr, ptr %12, align 8
  %49 = load ptr, ptr %13, align 8
  %50 = call i32 @dissect_ndr_pointer(ptr noundef %44, i32 noundef %45, ptr noundef %46, ptr noundef %47, ptr noundef %48, ptr noundef %49, ptr noundef @dissect_afstoken, i32 noundef 1, ptr noundef @.str.386, i32 noundef -1)
  store i32 %50, ptr %9, align 4
  %51 = load ptr, ptr %8, align 8
  %52 = load i32, ptr %9, align 4
  %53 = load ptr, ptr %10, align 8
  %54 = load ptr, ptr %11, align 8
  %55 = load ptr, ptr %12, align 8
  %56 = load ptr, ptr %13, align 8
  %57 = call i32 @dissect_ndr_pointer(ptr noundef %51, i32 noundef %52, ptr noundef %53, ptr noundef %54, ptr noundef %55, ptr noundef %56, ptr noundef @dissect_volsync, i32 noundef 1, ptr noundef @.str.387, i32 noundef -1)
  store i32 %57, ptr %9, align 4
  call void @llvm.lifetime.start.p0(i64 4, ptr %14) #4
  call void @llvm.lifetime.start.p0(i64 8, ptr %15) #4
  %58 = load ptr, ptr %8, align 8
  %59 = load i32, ptr %9, align 4
  %60 = load ptr, ptr %10, align 8
  %61 = load ptr, ptr %11, align 8
  %62 = load ptr, ptr %12, align 8
  %63 = load ptr, ptr %13, align 8
  %64 = load i32, ptr @hf_error_st, align 4
  %65 = call i32 @dissect_ndr_uint32(ptr noundef %58, i32 noundef %59, ptr noundef %60, ptr noundef %61, ptr noundef %62, ptr noundef %63, i32 noundef %64, ptr noundef %14)
  store i32 %65, ptr %9, align 4
  %66 = load i32, ptr %14, align 4
  %67 = call ptr @val_to_str_ext(i32 noundef %66, ptr noundef @dce_error_vals_ext, ptr noundef @.str.346)
  store ptr %67, ptr %15, align 8
  %68 = load i32, ptr %14, align 4
  %69 = icmp ne i32 %68, 0
  br i1 %69, label %70, label %75

70:                                               ; preds = %22
  %71 = load ptr, ptr %10, align 8
  %72 = getelementptr inbounds nuw %struct._packet_info, ptr %71, i32 0, i32 1
  %73 = load ptr, ptr %72, align 8
  %74 = load ptr, ptr %15, align 8
  call void (ptr, i32, ptr, ...) @col_add_fstr(ptr noundef %73, i32 noundef 25, ptr noundef @.str.373, ptr noundef @.str.460, ptr noundef %74)
  br label %80

75:                                               ; preds = %22
  %76 = load ptr, ptr %10, align 8
  %77 = getelementptr inbounds nuw %struct._packet_info, ptr %76, i32 0, i32 1
  %78 = load ptr, ptr %77, align 8
  %79 = load ptr, ptr %15, align 8
  call void (ptr, i32, ptr, ...) @col_append_fstr(ptr noundef %78, i32 noundef 25, ptr noundef @.str.375, ptr noundef %79)
  br label %80

80:                                               ; preds = %75, %70
  call void @llvm.lifetime.end.p0(i64 8, ptr %15) #4
  call void @llvm.lifetime.end.p0(i64 4, ptr %14) #4
  %81 = load i32, ptr %9, align 4
  store i32 %81, ptr %7, align 4
  br label %82

82:                                               ; preds = %80, %20
  %83 = load i32, ptr %7, align 4
  ret i32 %83
}